; Function Attrs: mustprogress nofree norecurse nosync nounwind willreturn memory(argmem: read) uwtable
define internal { ptr, i64 } @_ZNK7rocksdb12_GLOBAL__N_121TwoLevelIndexIterator3keyEv(ptr nocapture noundef nonnull readonly align 8 dereferenceable(160) %this) unnamed_addr #5 align 2 {
entry:
  %result_.i = getelementptr inbounds i8, ptr %this, i64 96
  %retval.sroa.0.0.copyload.i = load ptr, ptr %result_.i, align 8
  %retval.sroa.2.0.key.sroa_idx.i = getelementptr inbounds i8, ptr %this, i64 104
  %retval.sroa.2.0.copyload.i = load i64, ptr %retval.sroa.2.0.key.sroa_idx.i, align 8
  %.fca.0.insert.i = insertvalue { ptr, i64 } poison, ptr %retval.sroa.0.0.copyload.i, 0
  %.fca.1.insert.i = insertvalue { ptr, i64 } %.fca.0.insert.i, i64 %retval.sroa.2.0.copyload.i, 1
  ret { ptr, i64 } %.fca.1.insert.i
}